ccollections
defaultdict
p0
(c__builtin__
list
p1
tp2
Rp3
S'k1'
p4
(lp5
sS'complete'
p6
ccopy_reg
_reconstructor
p7
(cuuid
UUID
p8
c__builtin__
object
p9
Ntp10
Rp11
(dp12
S'int'
p13
L316379840096187194685565335590278835084L
sbs.