ccollections
defaultdict
p0
(c__builtin__
list
p1
tp2
Rp3
S'k1'
p4
(lp5
S'111'
p6
aS'222'
p7
asS'complete'
p8
ccopy_reg
_reconstructor
p9
(cuuid
UUID
p10
c__builtin__
object
p11
Ntp12
Rp13
(dp14
S'int'
p15
L333737920712006199198398494710908365708L
sbs.